target datalayout = "e-m:e-p270:32:32-p271:32:32-p272:64:64-i64:64-i128:128-f80:128-n8:16:32:64-S128"
target triple = "x86_64-pc-linux-gnu"

%struct.optstruct = type { ptr, ptr, ptr, i64, i32, i32, i32, i32, ptr, ptr, ptr }

@.str.22 = private unnamed_addr constant [13 x i8] c"utf16-decode\00", align 1
@.str.150 = private unnamed_addr constant [33 x i8] c"utf16decode: Can't open file %s\0A\00", align 1
@.str.151 = private unnamed_addr constant [36 x i8] c"utf16decode: Can't allocate memory\0A\00", align 1
@.str.152 = private unnamed_addr constant [9 x i8] c"%s.ascii\00", align 1
@.str.153 = private unnamed_addr constant [35 x i8] c"utf16decode: Can't create file %s\0A\00", align 1
@.str.154 = private unnamed_addr constant [37 x i8] c"utf16decode: Can't write to file %s\0A\00", align 1

; Function Attrs: nounwind uwtable
define internal i32 @utf16decode(ptr noundef %0) #0 {
  %2 = alloca i32, align 4
  %3 = alloca ptr, align 8
  %4 = alloca ptr, align 8
  %5 = alloca ptr, align 8
  %6 = alloca [512 x i8], align 16
  %7 = alloca ptr, align 8
  %8 = alloca i32, align 4
  %9 = alloca i32, align 4
  %10 = alloca i32, align 4
  store ptr %0, ptr %3, align 8
  %11 = load ptr, ptr %3, align 8
  %12 = call ptr @optget(ptr noundef %11, ptr noundef @.str.22)
  %13 = getelementptr inbounds %struct.optstruct, ptr %12, i32 0, i32 2
  %14 = load ptr, ptr %13, align 8
  store ptr %14, ptr %4, align 8
  %15 = load ptr, ptr %4, align 8
  %16 = call i32 (ptr, i32, ...) @open(ptr noundef %15, i32 noundef 0)
  store i32 %16, ptr %8, align 4
  %17 = icmp eq i32 %16, -1
  br i1 %17, label %18, label %20

18:                                               ; preds = %1
  %19 = load ptr, ptr %4, align 8
  call void (i32, ptr, ...) @mprintf(i32 noundef 5, ptr noundef @.str.150, ptr noundef %19)
  store i32 -1, ptr %2, align 4
  br label %81

20:                                               ; preds = %1
  %21 = load ptr, ptr %4, align 8
  %22 = call i64 @strlen(ptr noundef %21) #14
  %23 = add i64 %22, 7
  %24 = call noalias ptr @malloc(i64 noundef %23) #13
  store ptr %24, ptr %5, align 8
  %25 = load ptr, ptr %5, align 8
  %26 = icmp ne ptr %25, null
  br i1 %26, label %30, label %27

27:                                               ; preds = %20
  call void (i32, ptr, ...) @mprintf(i32 noundef 5, ptr noundef @.str.151)
  %28 = load i32, ptr %8, align 4
  %29 = call i32 @close(i32 noundef %28)
  store i32 -1, ptr %2, align 4
  br label %81

30:                                               ; preds = %20
  %31 = load ptr, ptr %5, align 8
  %32 = load ptr, ptr %4, align 8
  %33 = call i32 (ptr, ptr, ...) @sprintf(ptr noundef %31, ptr noundef @.str.152, ptr noundef %32) #11
  %34 = load ptr, ptr %5, align 8
  %35 = call i32 (ptr, i32, ...) @open(ptr noundef %34, i32 noundef 577, i32 noundef 384)
  store i32 %35, ptr %9, align 4
  %36 = icmp slt i32 %35, 0
  br i1 %36, label %37, label %42

37:                                               ; preds = %30
  %38 = load ptr, ptr %5, align 8
  call void (i32, ptr, ...) @mprintf(i32 noundef 5, ptr noundef @.str.153, ptr noundef %38)
  %39 = load ptr, ptr %5, align 8
  call void @free(ptr noundef %39) #11
  %40 = load i32, ptr %8, align 4
  %41 = call i32 @close(i32 noundef %40)
  store i32 -1, ptr %2, align 4
  br label %81

42:                                               ; preds = %30
  br label %43

43:                                               ; preds = %74, %42
  %44 = load i32, ptr %8, align 4
  %45 = getelementptr inbounds [512 x i8], ptr %6, i64 0, i64 0
  %46 = call i64 @read(i32 noundef %44, ptr noundef %45, i64 noundef 512)
  %47 = trunc i64 %46 to i32
  store i32 %47, ptr %10, align 4
  %48 = icmp sgt i32 %47, 0
  br i1 %48, label %49, label %75

49:                                               ; preds = %43
  %50 = getelementptr inbounds [512 x i8], ptr %6, i64 0, i64 0
  %51 = load i32, ptr %10, align 4
  %52 = call ptr @cli_utf16toascii(ptr noundef %50, i32 noundef %51)
  store ptr %52, ptr %7, align 8
  %53 = load ptr, ptr %7, align 8
  %54 = icmp ne ptr %53, null
  br i1 %54, label %55, label %74

55:                                               ; preds = %49
  %56 = load i32, ptr %9, align 4
  %57 = load ptr, ptr %7, align 8
  %58 = load ptr, ptr %7, align 8
  %59 = call i64 @strlen(ptr noundef %58) #14
  %60 = call i64 @write(i32 noundef %56, ptr noundef %57, i64 noundef %59)
  %61 = icmp eq i64 %60, -1
  br i1 %61, label %62, label %72

62:                                               ; preds = %55
  %63 = load ptr, ptr %5, align 8
  call void (i32, ptr, ...) @mprintf(i32 noundef 5, ptr noundef @.str.154, ptr noundef %63)
  %64 = load ptr, ptr %7, align 8
  call void @free(ptr noundef %64) #11
  %65 = load i32, ptr %8, align 4
  %66 = call i32 @close(i32 noundef %65)
  %67 = load i32, ptr %9, align 4
  %68 = call i32 @close(i32 noundef %67)
  %69 = load ptr, ptr %5, align 8
  %70 = call i32 @unlink(ptr noundef %69) #11
  %71 = load ptr, ptr %5, align 8
  call void @free(ptr noundef %71) #11
  store i32 -1, ptr %2, align 4
  br label %81

72:                                               ; preds = %55
  %73 = load ptr, ptr %7, align 8
  call void @free(ptr noundef %73) #11
  br label %74

74:                                               ; preds = %72, %49
  br label %43

75:                                               ; preds = %43
  %76 = load ptr, ptr %5, align 8
  call void @free(ptr noundef %76) #11
  %77 = load i32, ptr %8, align 4
  %78 = call i32 @close(i32 noundef %77)
  %79 = load i32, ptr %9, align 4
  %80 = call i32 @close(i32 noundef %79)
  store i32 0, ptr %2, align 4
  br label %81

81:                                               ; preds = %75, %62, %37, %27, %18
  %82 = load i32, ptr %2, align 4
  ret i32 %82
}