; Function Attrs: nounwind uwtable
define internal fastcc noundef i32 @utf16decode(ptr noundef %0) unnamed_addr #0 {
  %2 = alloca [512 x i8], align 16
  %3 = tail call ptr @optget(ptr noundef %0, ptr noundef nonnull @.str.22) #25
  %4 = getelementptr inbounds i8, ptr %3, i64 16
  %5 = load ptr, ptr %4, align 8
  %6 = tail call i32 (ptr, i32, ...) @open(ptr noundef %5, i32 noundef 0) #25
  %7 = icmp eq i32 %6, -1
  br i1 %7, label %8, label %9

8:                                                ; preds = %1
  tail call void (i32, ptr, ...) @mprintf(i32 noundef 5, ptr noundef nonnull @.str.150, ptr noundef %5) #25
  br label %41

9:                                                ; preds = %1
  %10 = tail call i64 @strlen(ptr noundef nonnull dereferenceable(1) %5) #31
  %11 = add i64 %10, 7
  %12 = tail call noalias ptr @malloc(i64 noundef %11) #30
  %.not = icmp eq ptr %12, null
  br i1 %.not, label %13, label %15

13:                                               ; preds = %9
  tail call void (i32, ptr, ...) @mprintf(i32 noundef 5, ptr noundef nonnull @.str.151) #25
  %14 = tail call i32 @close(i32 noundef %6) #25
  br label %41

15:                                               ; preds = %9
  %16 = tail call i32 (ptr, ptr, ...) @sprintf(ptr noundef nonnull dereferenceable(1) %12, ptr noundef nonnull dereferenceable(1) @.str.152, ptr noundef %5) #25
  %17 = tail call i32 (ptr, i32, ...) @open(ptr noundef nonnull %12, i32 noundef 577, i32 noundef 384) #25
  %18 = icmp slt i32 %17, 0
  br i1 %18, label %22, label %.preheader

.preheader:                                       ; preds = %15
  %19 = call i64 @read(i32 noundef %6, ptr noundef nonnull %2, i64 noundef 512) #25
  %20 = trunc i64 %19 to i32
  %21 = icmp sgt i32 %20, 0
  br i1 %21, label %.lr.ph, label %._crit_edge

22:                                               ; preds = %15
  tail call void (i32, ptr, ...) @mprintf(i32 noundef 5, ptr noundef nonnull @.str.153, ptr noundef nonnull %12) #25
  tail call void @free(ptr noundef nonnull %12) #25
  %23 = tail call i32 @close(i32 noundef %6) #25
  br label %41

.lr.ph:                                           ; preds = %.preheader, %35
  %24 = phi i32 [ %37, %35 ], [ %20, %.preheader ]
  %25 = call ptr @cli_utf16toascii(ptr noundef nonnull %2, i32 noundef %24) #25
  %.not32 = icmp eq ptr %25, null
  br i1 %.not32, label %35, label %26

26:                                               ; preds = %.lr.ph
  %27 = call i64 @strlen(ptr noundef nonnull dereferenceable(1) %25) #31
  %28 = call i64 @write(i32 noundef %17, ptr noundef nonnull %25, i64 noundef %27) #25
  %29 = icmp eq i64 %28, -1
  br i1 %29, label %30, label %34

30:                                               ; preds = %26
  call void (i32, ptr, ...) @mprintf(i32 noundef 5, ptr noundef nonnull @.str.154, ptr noundef nonnull %12) #25
  call void @free(ptr noundef nonnull %25) #25
  %31 = call i32 @close(i32 noundef %6) #25
  %32 = call i32 @close(i32 noundef %17) #25
  %33 = call i32 @unlink(ptr noundef nonnull %12) #25
  call void @free(ptr noundef %12) #25
  br label %41

34:                                               ; preds = %26
  call void @free(ptr noundef nonnull %25) #25
  br label %35

35:                                               ; preds = %34, %.lr.ph
  %36 = call i64 @read(i32 noundef %6, ptr noundef nonnull %2, i64 noundef 512) #25
  %37 = trunc i64 %36 to i32
  %38 = icmp sgt i32 %37, 0
  br i1 %38, label %.lr.ph, label %._crit_edge

._crit_edge:                                      ; preds = %35, %.preheader
  call void @free(ptr noundef %12) #25
  %39 = call i32 @close(i32 noundef %6) #25
  %40 = call i32 @close(i32 noundef %17) #25
  br label %41

41:                                               ; preds = %._crit_edge, %30, %22, %13, %8
  %.0 = phi i32 [ -1, %8 ], [ -1, %22 ], [ -1, %30 ], [ 0, %._crit_edge ], [ -1, %13 ]
  ret i32 %.0
}